target datalayout = "e-m:e-p270:32:32-p271:32:32-p272:64:64-i64:64-i128:128-f80:128-n8:16:32:64-S128"
target triple = "x86_64-pc-linux-gnu"

%struct.darktable_t = type { %struct.dt_codepath_t, i32, i32, ptr, ptr, ptr, ptr, ptr, ptr, ptr, ptr, ptr, ptr, ptr, ptr, ptr, ptr, ptr, ptr, ptr, ptr, ptr, ptr, ptr, ptr, ptr, ptr, ptr, ptr, ptr, [64 x %struct.dt_pthread_mutex_t], %struct.dt_pthread_mutex_t, %struct.dt_pthread_mutex_t, %struct.dt_pthread_mutex_t, %struct.dt_pthread_mutex_t, %struct.dt_pthread_mutex_t, ptr, ptr, ptr, ptr, ptr, ptr, ptr, ptr, ptr, ptr, ptr, ptr, ptr, %struct.dt_lua_state_t, ptr, double, ptr, i32, [47 x i32], i32, i32, ptr, ptr, %struct.dt_sys_resources_t, %struct.dt_backthumb_t, %struct.dt_gimp_t }
%struct.dt_codepath_t = type { i8, [3 x i8] }
%struct.dt_pthread_mutex_t = type { %union.pthread_mutex_t }
%union.pthread_mutex_t = type { %struct.__pthread_mutex_s }
%struct.__pthread_mutex_s = type { i32, i32, i32, i32, i32, i16, i16, %struct.__pthread_internal_list }
%struct.__pthread_internal_list = type { ptr, ptr }
%struct.dt_lua_state_t = type { i32 }
%struct.dt_sys_resources_t = type { i64, i64, ptr, ptr, i32 }
%struct.dt_backthumb_t = type { double, double, i32, i32, i32, i32 }
%struct.dt_gimp_t = type { i32, ptr, ptr, i32, i32 }
%struct.dt_colorspaces_t = type { ptr, %union.pthread_rwlock_t, ptr, ptr, i32, ptr, ptr, i32, i32, i32, i32, i32, [512 x i8], [512 x i8], [512 x i8], [512 x i8], i32, i32, i32, i32, ptr, ptr, ptr, ptr }
%union.pthread_rwlock_t = type { %struct.__pthread_rwlock_arch_t }
%struct.__pthread_rwlock_arch_t = type { i32, i32, i32, i32, i32, i32, i32, i32, i8, [7 x i8], i64, i32 }
%struct.dt_colorspaces_color_profile_t = type { i32, [512 x i8], [512 x i8], ptr, i32, i32, i32, i32, i32, i32 }

@darktable = external global %struct.darktable_t, align 8
@.str.3 = private unnamed_addr constant [1 x i8] zeroinitializer, align 1
@.str.30 = private unnamed_addr constant [53 x i8] c"working profile color space `%c%c%c%c' not supported\00", align 1
@.str.31 = private unnamed_addr constant [99 x i8] c"[transform_from_to_rgb_lab_lcms2] unsupported working profile %s has been replaced by Rec2020 RGB!\00", align 1
@.str.32 = private unnamed_addr constant [59 x i8] c"[_transform_from_to_rgb_lab_lcms2] cannot create transform\00", align 1

; Function Attrs: nounwind uwtable
define internal void @_transform_from_to_rgb_lab_lcms2(ptr noundef %0, ptr noundef %1, i32 noundef %2, i32 noundef %3, i32 noundef %4, ptr noundef %5, i32 noundef %6, i32 noundef %7) #0 {
  %9 = alloca ptr, align 8
  %10 = alloca ptr, align 8
  %11 = alloca i32, align 4
  %12 = alloca i32, align 4
  %13 = alloca i32, align 4
  %14 = alloca ptr, align 8
  %15 = alloca i32, align 4
  %16 = alloca i32, align 4
  %17 = alloca i32, align 4
  %18 = alloca ptr, align 8
  %19 = alloca ptr, align 8
  %20 = alloca ptr, align 8
  %21 = alloca ptr, align 8
  %22 = alloca i32, align 4
  %23 = alloca ptr, align 8
  %24 = alloca ptr, align 8
  %25 = alloca i32, align 4
  %26 = alloca i32, align 4
  %27 = alloca i32, align 4
  %28 = alloca ptr, align 8
  %29 = alloca ptr, align 8
  store ptr %0, ptr %9, align 8, !tbaa !22
  store ptr %1, ptr %10, align 8, !tbaa !22
  store i32 %2, ptr %11, align 4, !tbaa !11
  store i32 %3, ptr %12, align 4, !tbaa !11
  store i32 %4, ptr %13, align 4, !tbaa !11
  store ptr %5, ptr %14, align 8, !tbaa !28
  store i32 %6, ptr %15, align 4, !tbaa !11
  store i32 %7, ptr %16, align 4, !tbaa !11
  call void @llvm.lifetime.start.p0(i64 4, ptr %17) #10
  store i32 4, ptr %17, align 4, !tbaa !11
  call void @llvm.lifetime.start.p0(i64 8, ptr %18) #10
  store ptr null, ptr %18, align 8, !tbaa !67
  call void @llvm.lifetime.start.p0(i64 8, ptr %19) #10
  store ptr null, ptr %19, align 8, !tbaa !67
  call void @llvm.lifetime.start.p0(i64 8, ptr %20) #10
  store ptr null, ptr %20, align 8, !tbaa !67
  %30 = load i32, ptr %13, align 4, !tbaa !11
  %31 = icmp eq i32 %30, 8
  br i1 %31, label %35, label %32

32:                                               ; preds = %8
  %33 = load i32, ptr %13, align 4, !tbaa !11
  %34 = icmp eq i32 %33, 19
  br i1 %34, label %35, label %39

35:                                               ; preds = %32, %8
  %36 = load ptr, ptr getelementptr inbounds nuw (%struct.darktable_t, ptr @darktable, i32 0, i32 28), align 8, !tbaa !68
  %37 = getelementptr inbounds nuw %struct.dt_colorspaces_t, ptr %36, i32 0, i32 1
  %38 = call i32 @pthread_rwlock_rdlock(ptr noundef %37) #10
  br label %39

39:                                               ; preds = %35, %32
  %40 = load i32, ptr %13, align 4, !tbaa !11
  %41 = icmp ne i32 %40, -1
  br i1 %41, label %42, label %53

42:                                               ; preds = %39
  call void @llvm.lifetime.start.p0(i64 8, ptr %21) #10
  %43 = load i32, ptr %13, align 4, !tbaa !11
  %44 = load ptr, ptr %14, align 8, !tbaa !28
  %45 = call ptr @dt_colorspaces_get_profile(i32 noundef %43, ptr noundef %44, i32 noundef 63)
  store ptr %45, ptr %21, align 8, !tbaa !99
  %46 = load ptr, ptr %21, align 8, !tbaa !99
  %47 = icmp ne ptr %46, null
  br i1 %47, label %48, label %52

48:                                               ; preds = %42
  %49 = load ptr, ptr %21, align 8, !tbaa !99
  %50 = getelementptr inbounds nuw %struct.dt_colorspaces_color_profile_t, ptr %49, i32 0, i32 3
  %51 = load ptr, ptr %50, align 8, !tbaa !101
  store ptr %51, ptr %19, align 8, !tbaa !67
  br label %52

52:                                               ; preds = %48, %42
  call void @llvm.lifetime.end.p0(i64 8, ptr %21) #10
  br label %57

53:                                               ; preds = %39
  %54 = call ptr @dt_colorspaces_get_profile(i32 noundef 4, ptr noundef @.str.3, i32 noundef 16)
  %55 = getelementptr inbounds nuw %struct.dt_colorspaces_color_profile_t, ptr %54, i32 0, i32 3
  %56 = load ptr, ptr %55, align 8, !tbaa !101
  store ptr %56, ptr %19, align 8, !tbaa !67
  br label %57

57:                                               ; preds = %53, %52
  %58 = load ptr, ptr %19, align 8, !tbaa !67
  %59 = icmp ne ptr %58, null
  br i1 %59, label %60, label %91

60:                                               ; preds = %57
  call void @llvm.lifetime.start.p0(i64 4, ptr %22) #10
  %61 = load ptr, ptr %19, align 8, !tbaa !67
  %62 = call i32 @cmsGetColorSpace(ptr noundef %61)
  store i32 %62, ptr %22, align 4, !tbaa !11
  %63 = load i32, ptr %22, align 4, !tbaa !11
  %64 = icmp ne i32 %63, 1380401696
  br i1 %64, label %65, label %90

65:                                               ; preds = %60
  br label %66

66:                                               ; preds = %65
  %67 = load i32, ptr getelementptr inbounds nuw (%struct.darktable_t, ptr @darktable, i32 0, i32 2), align 8, !tbaa !103
  %68 = xor i32 %67, -1
  %69 = and i32 0, %68
  %70 = icmp ne i32 %69, 0
  br i1 %70, label %87, label %71

71:                                               ; preds = %66
  %72 = load i32, ptr %22, align 4, !tbaa !11
  %73 = lshr i32 %72, 24
  %74 = trunc i32 %73 to i8
  %75 = sext i8 %74 to i32
  %76 = load i32, ptr %22, align 4, !tbaa !11
  %77 = lshr i32 %76, 16
  %78 = trunc i32 %77 to i8
  %79 = sext i8 %78 to i32
  %80 = load i32, ptr %22, align 4, !tbaa !11
  %81 = lshr i32 %80, 8
  %82 = trunc i32 %81 to i8
  %83 = sext i8 %82 to i32
  %84 = load i32, ptr %22, align 4, !tbaa !11
  %85 = trunc i32 %84 to i8
  %86 = sext i8 %85 to i32
  call void (ptr, ...) @dt_print_ext(ptr noundef @.str.30, i32 noundef %75, i32 noundef %79, i32 noundef %83, i32 noundef %86)
  br label %87

87:                                               ; preds = %71, %66
  br label %88

88:                                               ; preds = %87
  br label %89

89:                                               ; preds = %88
  store ptr null, ptr %19, align 8, !tbaa !67
  br label %90

90:                                               ; preds = %89, %60
  call void @llvm.lifetime.end.p0(i64 4, ptr %22) #10
  br label %91

91:                                               ; preds = %90, %57
  %92 = load ptr, ptr %19, align 8, !tbaa !67
  %93 = icmp eq ptr %92, null
  br i1 %93, label %94, label %108

94:                                               ; preds = %91
  %95 = call ptr @dt_colorspaces_get_profile(i32 noundef 4, ptr noundef @.str.3, i32 noundef 16)
  %96 = getelementptr inbounds nuw %struct.dt_colorspaces_color_profile_t, ptr %95, i32 0, i32 3
  %97 = load ptr, ptr %96, align 8, !tbaa !101
  store ptr %97, ptr %19, align 8, !tbaa !67
  br label %98

98:                                               ; preds = %94
  %99 = load i32, ptr getelementptr inbounds nuw (%struct.darktable_t, ptr @darktable, i32 0, i32 2), align 8, !tbaa !103
  %100 = xor i32 %99, -1
  %101 = and i32 0, %100
  %102 = icmp ne i32 %101, 0
  br i1 %102, label %105, label %103

103:                                              ; preds = %98
  %104 = load ptr, ptr %14, align 8, !tbaa !28
  call void (ptr, ...) @dt_print_ext(ptr noundef @.str.31, ptr noundef %104)
  br label %105

105:                                              ; preds = %103, %98
  br label %106

106:                                              ; preds = %105
  br label %107

107:                                              ; preds = %106
  br label %108

108:                                              ; preds = %107, %91
  %109 = call ptr @dt_colorspaces_get_profile(i32 noundef 6, ptr noundef @.str.3, i32 noundef 63)
  %110 = getelementptr inbounds nuw %struct.dt_colorspaces_color_profile_t, ptr %109, i32 0, i32 3
  %111 = load ptr, ptr %110, align 8, !tbaa !101
  store ptr %111, ptr %20, align 8, !tbaa !67
  call void @llvm.lifetime.start.p0(i64 8, ptr %23) #10
  store ptr null, ptr %23, align 8, !tbaa !67
  call void @llvm.lifetime.start.p0(i64 8, ptr %24) #10
  store ptr null, ptr %24, align 8, !tbaa !67
  call void @llvm.lifetime.start.p0(i64 4, ptr %25) #10
  store i32 4456604, ptr %25, align 4, !tbaa !11
  call void @llvm.lifetime.start.p0(i64 4, ptr %26) #10
  store i32 4849820, ptr %26, align 4, !tbaa !11
  %112 = load i32, ptr %16, align 4, !tbaa !11
  %113 = icmp eq i32 %112, 1
  br i1 %113, label %114, label %117

114:                                              ; preds = %108
  %115 = load ptr, ptr %19, align 8, !tbaa !67
  store ptr %115, ptr %23, align 8, !tbaa !67
  store i32 4456604, ptr %25, align 4, !tbaa !11
  %116 = load ptr, ptr %20, align 8, !tbaa !67
  store ptr %116, ptr %24, align 8, !tbaa !67
  store i32 4849820, ptr %26, align 4, !tbaa !11
  br label %120

117:                                              ; preds = %108
  %118 = load ptr, ptr %20, align 8, !tbaa !67
  store ptr %118, ptr %23, align 8, !tbaa !67
  store i32 4849820, ptr %25, align 4, !tbaa !11
  %119 = load ptr, ptr %19, align 8, !tbaa !67
  store ptr %119, ptr %24, align 8, !tbaa !67
  store i32 4456604, ptr %26, align 4, !tbaa !11
  br label %120

120:                                              ; preds = %117, %114
  %121 = load ptr, ptr %23, align 8, !tbaa !67
  %122 = load i32, ptr %25, align 4, !tbaa !11
  %123 = load ptr, ptr %24, align 8, !tbaa !67
  %124 = load i32, ptr %26, align 4, !tbaa !11
  %125 = load i32, ptr %15, align 4, !tbaa !11
  %126 = call ptr @cmsCreateTransform(ptr noundef %121, i32 noundef %122, ptr noundef %123, i32 noundef %124, i32 noundef %125, i32 noundef 0)
  store ptr %126, ptr %18, align 8, !tbaa !67
  %127 = load i32, ptr %13, align 4, !tbaa !11
  %128 = icmp eq i32 %127, 8
  br i1 %128, label %132, label %129

129:                                              ; preds = %120
  %130 = load i32, ptr %13, align 4, !tbaa !11
  %131 = icmp eq i32 %130, 19
  br i1 %131, label %132, label %136

132:                                              ; preds = %129, %120
  %133 = load ptr, ptr getelementptr inbounds nuw (%struct.darktable_t, ptr @darktable, i32 0, i32 28), align 8, !tbaa !68
  %134 = getelementptr inbounds nuw %struct.dt_colorspaces_t, ptr %133, i32 0, i32 1
  %135 = call i32 @pthread_rwlock_unlock(ptr noundef %134) #10
  br label %136

136:                                              ; preds = %132, %129
  %137 = load ptr, ptr %18, align 8, !tbaa !67
  %138 = icmp ne ptr %137, null
  br i1 %138, label %139, label %168

139:                                              ; preds = %136
  call void @llvm.lifetime.start.p0(i64 4, ptr %27) #10
  store i32 0, ptr %27, align 4, !tbaa !11
  br label %140

140:                                              ; preds = %164, %139
  %141 = load i32, ptr %27, align 4, !tbaa !11
  %142 = load i32, ptr %12, align 4, !tbaa !11
  %143 = icmp slt i32 %141, %142
  br i1 %143, label %145, label %144

144:                                              ; preds = %140
  call void @llvm.lifetime.end.p0(i64 4, ptr %27) #10
  br label %167

145:                                              ; preds = %140
  call void @llvm.lifetime.start.p0(i64 8, ptr %28) #10
  %146 = load ptr, ptr %9, align 8, !tbaa !22
  %147 = load i32, ptr %27, align 4, !tbaa !11
  %148 = load i32, ptr %11, align 4, !tbaa !11
  %149 = mul nsw i32 %147, %148
  %150 = mul nsw i32 %149, 4
  %151 = sext i32 %150 to i64
  %152 = getelementptr inbounds float, ptr %146, i64 %151
  store ptr %152, ptr %28, align 8, !tbaa !22
  call void @llvm.lifetime.start.p0(i64 8, ptr %29) #10
  %153 = load ptr, ptr %10, align 8, !tbaa !22
  %154 = load i32, ptr %27, align 4, !tbaa !11
  %155 = load i32, ptr %11, align 4, !tbaa !11
  %156 = mul nsw i32 %154, %155
  %157 = mul nsw i32 %156, 4
  %158 = sext i32 %157 to i64
  %159 = getelementptr inbounds float, ptr %153, i64 %158
  store ptr %159, ptr %29, align 8, !tbaa !22
  %160 = load ptr, ptr %18, align 8, !tbaa !67
  %161 = load ptr, ptr %28, align 8, !tbaa !22
  %162 = load ptr, ptr %29, align 8, !tbaa !22
  %163 = load i32, ptr %11, align 4, !tbaa !11
  call void @cmsDoTransform(ptr noundef %160, ptr noundef %161, ptr noundef %162, i32 noundef %163)
  call void @llvm.lifetime.end.p0(i64 8, ptr %29) #10
  call void @llvm.lifetime.end.p0(i64 8, ptr %28) #10
  br label %164

164:                                              ; preds = %145
  %165 = load i32, ptr %27, align 4, !tbaa !11
  %166 = add nsw i32 %165, 1
  store i32 %166, ptr %27, align 4, !tbaa !11
  br label %140

167:                                              ; preds = %144
  br label %178

168:                                              ; preds = %136
  br label %169

169:                                              ; preds = %168
  %170 = load i32, ptr getelementptr inbounds nuw (%struct.darktable_t, ptr @darktable, i32 0, i32 2), align 8, !tbaa !103
  %171 = xor i32 %170, -1
  %172 = and i32 0, %171
  %173 = icmp ne i32 %172, 0
  br i1 %173, label %175, label %174

174:                                              ; preds = %169
  call void (ptr, ...) @dt_print_ext(ptr noundef @.str.32)
  br label %175

175:                                              ; preds = %174, %169
  br label %176

176:                                              ; preds = %175
  br label %177

177:                                              ; preds = %176
  br label %178

178:                                              ; preds = %177, %167
  %179 = load ptr, ptr %18, align 8, !tbaa !67
  %180 = icmp ne ptr %179, null
  br i1 %180, label %181, label %183

181:                                              ; preds = %178
  %182 = load ptr, ptr %18, align 8, !tbaa !67
  call void @cmsDeleteTransform(ptr noundef %182)
  br label %183

183:                                              ; preds = %181, %178
  call void @llvm.lifetime.end.p0(i64 4, ptr %26) #10
  call void @llvm.lifetime.end.p0(i64 4, ptr %25) #10
  call void @llvm.lifetime.end.p0(i64 8, ptr %24) #10
  call void @llvm.lifetime.end.p0(i64 8, ptr %23) #10
  call void @llvm.lifetime.end.p0(i64 8, ptr %20) #10
  call void @llvm.lifetime.end.p0(i64 8, ptr %19) #10
  call void @llvm.lifetime.end.p0(i64 8, ptr %18) #10
  call void @llvm.lifetime.end.p0(i64 4, ptr %17) #10
  ret void
}