; Function Attrs: nounwind uwtable
define internal fastcc void @_transform_from_to_rgb_lab_lcms2(ptr noundef %0, ptr noundef %1, i32 noundef %2, i32 noundef %3, i32 noundef %4, ptr noundef nonnull %5, i32 noundef %6, i32 noundef range(i32 -1, 2) %7) unnamed_addr #0 {
  switch i32 %4, label %13 [
    i32 19, label %9
    i32 8, label %9
    i32 -1, label %15
  ]

9:                                                ; preds = %8, %8
  %10 = load ptr, ptr getelementptr inbounds nuw (i8, ptr @darktable, i64 216), align 8, !tbaa !25
  %11 = getelementptr inbounds nuw i8, ptr %10, i64 8
  %12 = tail call i32 @pthread_rwlock_rdlock(ptr noundef nonnull %11) #17
  br label %13

13:                                               ; preds = %9, %8
  %14 = tail call ptr @dt_colorspaces_get_profile(i32 noundef %4, ptr noundef nonnull %5, i32 noundef 63) #17
  %.not56 = icmp eq ptr %14, null
  br i1 %.not56, label %.thread, label %17

15:                                               ; preds = %8
  %16 = tail call ptr @dt_colorspaces_get_profile(i32 noundef 4, ptr noundef nonnull @.str.3, i32 noundef 16) #17
  br label %17

17:                                               ; preds = %13, %15
  %.pn = phi ptr [ %16, %15 ], [ %14, %13 ]
  %.1.in = getelementptr inbounds nuw i8, ptr %.pn, i64 1032
  %.1 = load ptr, ptr %.1.in, align 8, !tbaa !62
  %.not57 = icmp eq ptr %.1, null
  br i1 %.not57, label %.thread, label %18

18:                                               ; preds = %17
  %19 = tail call i32 @cmsGetColorSpace(ptr noundef nonnull %.1) #17
  %.not58 = icmp eq i32 %19, 1380401696
  br i1 %.not58, label %30, label %20

20:                                               ; preds = %18
  %21 = ashr i32 %19, 24
  %22 = shl i32 %19, 8
  %23 = ashr i32 %22, 24
  %24 = shl i32 %19, 16
  %25 = ashr i32 %24, 24
  %sext = shl i32 %19, 24
  %26 = ashr exact i32 %sext, 24
  tail call void (ptr, ...) @dt_print_ext(ptr noundef nonnull @.str.30, i32 noundef %21, i32 noundef %23, i32 noundef %25, i32 noundef %26) #17
  br label %.thread

.thread:                                          ; preds = %13, %17, %20
  %27 = tail call ptr @dt_colorspaces_get_profile(i32 noundef 4, ptr noundef nonnull @.str.3, i32 noundef 16) #17
  %28 = getelementptr inbounds nuw i8, ptr %27, i64 1032
  %29 = load ptr, ptr %28, align 8, !tbaa !62
  tail call void (ptr, ...) @dt_print_ext(ptr noundef nonnull @.str.31, ptr noundef nonnull %5) #17
  br label %30

30:                                               ; preds = %18, %.thread
  %.4 = phi ptr [ %29, %.thread ], [ %.1, %18 ]
  %31 = tail call ptr @dt_colorspaces_get_profile(i32 noundef 6, ptr noundef nonnull @.str.3, i32 noundef 63) #17
  %32 = getelementptr inbounds nuw i8, ptr %31, i64 1032
  %33 = load ptr, ptr %32, align 8, !tbaa !62
  %34 = icmp eq i32 %7, 1
  %.4. = select i1 %34, ptr %.4, ptr %33
  %..4 = select i1 %34, ptr %33, ptr %.4
  %. = select i1 %34, i32 4456604, i32 4849820
  %.60 = select i1 %34, i32 4849820, i32 4456604
  %35 = tail call ptr @cmsCreateTransform(ptr noundef %.4., i32 noundef %., ptr noundef %..4, i32 noundef %.60, i32 noundef %6, i32 noundef 0) #17
  switch i32 %4, label %40 [
    i32 19, label %36
    i32 8, label %36
  ]

36:                                               ; preds = %30, %30
  %37 = load ptr, ptr getelementptr inbounds nuw (i8, ptr @darktable, i64 216), align 8, !tbaa !25
  %38 = getelementptr inbounds nuw i8, ptr %37, i64 8
  %39 = tail call i32 @pthread_rwlock_unlock(ptr noundef nonnull %38) #17
  br label %40

40:                                               ; preds = %30, %36
  %.not59 = icmp eq ptr %35, null
  br i1 %.not59, label %.thread65, label %.preheader

.preheader:                                       ; preds = %40
  %41 = icmp sgt i32 %3, 0
  br i1 %41, label %.lr.ph, label %._crit_edge

.lr.ph:                                           ; preds = %.preheader
  %42 = shl i32 %2, 2
  %wide.trip.count = zext nneg i32 %3 to i64
  br label %43

43:                                               ; preds = %.lr.ph, %43
  %indvars.iv = phi i64 [ 0, %.lr.ph ], [ %indvars.iv.next, %43 ]
  %44 = trunc nuw nsw i64 %indvars.iv to i32
  %45 = mul i32 %42, %44
  %46 = sext i32 %45 to i64
  %47 = getelementptr inbounds float, ptr %0, i64 %46
  %48 = getelementptr inbounds float, ptr %1, i64 %46
  tail call void @cmsDoTransform(ptr noundef nonnull %35, ptr noundef %47, ptr noundef %48, i32 noundef %2) #17
  %indvars.iv.next = add nuw nsw i64 %indvars.iv, 1
  %exitcond.not = icmp eq i64 %indvars.iv.next, %wide.trip.count
  br i1 %exitcond.not, label %._crit_edge, label %43

.thread65:                                        ; preds = %40
  tail call void (ptr, ...) @dt_print_ext(ptr noundef nonnull @.str.32) #17
  br label %49

._crit_edge:                                      ; preds = %43, %.preheader
  tail call void @cmsDeleteTransform(ptr noundef nonnull %35) #17
  br label %49

49:                                               ; preds = %.thread65, %._crit_edge
  ret void
}